; ModuleID = 'source-C-CXX/60/261.cpp'
source_filename = "source-C-CXX/60/261.cpp"
target datalayout = "e-m:e-p270:32:32-p271:32:32-p272:64:64-i64:64-f80:128-n8:16:32:64-S128"
target triple = "x86_64-pc-linux-gnu"

%"class.std::ios_base::Init" = type { i8 }
%"class.std::basic_istream" = type { i32 (...)**, i64, %"class.std::basic_ios" }
%"class.std::basic_ios" = type { %"class.std::ios_base", %"class.std::basic_ostream"*, i8, i8, %"class.std::basic_streambuf"*, %"class.std::ctype"*, %"class.std::num_put"*, %"class.std::num_get"* }
%"class.std::ios_base" = type { i32 (...)**, i64, i64, i32, i32, i32, %"struct.std::ios_base::_Callback_list"*, %"struct.std::ios_base::_Words", [8 x %"struct.std::ios_base::_Words"], i32, %"struct.std::ios_base::_Words"*, %"class.std::locale" }
%"struct.std::ios_base::_Callback_list" = type { %"struct.std::ios_base::_Callback_list"*, void (i32, %"class.std::ios_base"*, i32)*, i32, i32 }
%"struct.std::ios_base::_Words" = type { i8*, i64 }
%"class.std::locale" = type { %"class.std::locale::_Impl"* }
%"class.std::locale::_Impl" = type { i32, %"class.std::locale::facet"**, i64, %"class.std::locale::facet"**, i8** }
%"class.std::locale::facet" = type <{ i32 (...)**, i32, [4 x i8] }>
%"class.std::basic_ostream" = type { i32 (...)**, %"class.std::basic_ios" }
%"class.std::basic_streambuf" = type { i32 (...)**, i8*, i8*, i8*, i8*, i8*, i8*, %"class.std::locale" }
%"class.std::ctype" = type <{ %"class.std::locale::facet.base", [4 x i8], %struct.__locale_struct*, i8, [7 x i8], i32*, i32*, i16*, i8, [256 x i8], [256 x i8], i8, [6 x i8] }>
%"class.std::locale::facet.base" = type <{ i32 (...)**, i32 }>
%struct.__locale_struct = type { [13 x %struct.__locale_data*], i16*, i32*, i32*, [13 x i8*] }
%struct.__locale_data = type opaque
%"class.std::num_put" = type { %"class.std::locale::facet.base", [4 x i8] }
%"class.std::num_get" = type { %"class.std::locale::facet.base", [4 x i8] }

@_ZStL8__ioinit = internal global %"class.std::ios_base::Init" zeroinitializer, align 1
@__dso_handle = external hidden global i8
@_ZSt3cin = external global %"class.std::basic_istream", align 8
@_ZSt4cout = external global %"class.std::basic_ostream", align 8
@llvm.global_ctors = appending global [1 x { i32, void ()*, i8* }] [{ i32, void ()*, i8* } { i32 65535, void ()* @_GLOBAL__sub_I_261.cpp, i8* null }]

declare void @_ZNSt8ios_base4InitC1Ev(%"class.std::ios_base::Init"* nonnull align 1 dereferenceable(1)) unnamed_addr #0

; Function Attrs: nounwind
declare void @_ZNSt8ios_base4InitD1Ev(%"class.std::ios_base::Init"* nonnull align 1 dereferenceable(1)) unnamed_addr #1

; Function Attrs: nofree nounwind
declare i32 @__cxa_atexit(void (i8*)*, i8*, i8*) local_unnamed_addr #2

; Function Attrs: mustprogress norecurse sspstrong uwtable
define dso_local i32 @main() local_unnamed_addr #3 {
  %1 = alloca [21 x i32], align 16
  %2 = alloca i32, align 4
  %3 = alloca i32, align 4
  %4 = bitcast [21 x i32]* %1 to i8*
  call void @llvm.lifetime.start.p0i8(i64 84, i8* nonnull %4) #7
  %5 = bitcast i32* %2 to i8*
  call void @llvm.lifetime.start.p0i8(i64 4, i8* nonnull %5) #7
  %6 = bitcast i32* %3 to i8*
  call void @llvm.lifetime.start.p0i8(i64 4, i8* nonnull %6) #7
  %7 = getelementptr inbounds [21 x i32], [21 x i32]* %1, i64 0, i64 0
  store i32 1, i32* %7, align 16, !tbaa !5
  %8 = getelementptr inbounds [21 x i32], [21 x i32]* %1, i64 0, i64 1
  store i32 1, i32* %8, align 4, !tbaa !5
  %9 = call nonnull align 8 dereferenceable(16) %"class.std::basic_istream"* @_ZNSirsERi(%"class.std::basic_istream"* nonnull align 8 dereferenceable(16) @_ZSt3cin, i32* nonnull align 4 dereferenceable(4) %3)
  %10 = load i32, i32* %8, align 4, !tbaa !5
  %11 = load i32, i32* %7, align 16, !tbaa !5
  %12 = add nsw i32 %11, %10
  %13 = getelementptr inbounds [21 x i32], [21 x i32]* %1, i64 0, i64 2
  store i32 %12, i32* %13, align 8, !tbaa !5
  %14 = add nsw i32 %10, %12
  %15 = getelementptr inbounds [21 x i32], [21 x i32]* %1, i64 0, i64 3
  store i32 %14, i32* %15, align 4, !tbaa !5
  %16 = add nsw i32 %12, %14
  %17 = getelementptr inbounds [21 x i32], [21 x i32]* %1, i64 0, i64 4
  store i32 %16, i32* %17, align 16, !tbaa !5
  %18 = add nsw i32 %14, %16
  %19 = getelementptr inbounds [21 x i32], [21 x i32]* %1, i64 0, i64 5
  store i32 %18, i32* %19, align 4, !tbaa !5
  %20 = add nsw i32 %16, %18
  %21 = getelementptr inbounds [21 x i32], [21 x i32]* %1, i64 0, i64 6
  store i32 %20, i32* %21, align 8, !tbaa !5
  %22 = add nsw i32 %18, %20
  %23 = getelementptr inbounds [21 x i32], [21 x i32]* %1, i64 0, i64 7
  store i32 %22, i32* %23, align 4, !tbaa !5
  %24 = add nsw i32 %20, %22
  %25 = getelementptr inbounds [21 x i32], [21 x i32]* %1, i64 0, i64 8
  store i32 %24, i32* %25, align 16, !tbaa !5
  %26 = add nsw i32 %22, %24
  %27 = getelementptr inbounds [21 x i32], [21 x i32]* %1, i64 0, i64 9
  store i32 %26, i32* %27, align 4, !tbaa !5
  %28 = add nsw i32 %24, %26
  %29 = getelementptr inbounds [21 x i32], [21 x i32]* %1, i64 0, i64 10
  store i32 %28, i32* %29, align 8, !tbaa !5
  %30 = add nsw i32 %26, %28
  %31 = getelementptr inbounds [21 x i32], [21 x i32]* %1, i64 0, i64 11
  store i32 %30, i32* %31, align 4, !tbaa !5
  %32 = add nsw i32 %28, %30
  %33 = getelementptr inbounds [21 x i32], [21 x i32]* %1, i64 0, i64 12
  store i32 %32, i32* %33, align 16, !tbaa !5
  %34 = add nsw i32 %30, %32
  %35 = getelementptr inbounds [21 x i32], [21 x i32]* %1, i64 0, i64 13
  store i32 %34, i32* %35, align 4, !tbaa !5
  %36 = add nsw i32 %32, %34
  %37 = getelementptr inbounds [21 x i32], [21 x i32]* %1, i64 0, i64 14
  store i32 %36, i32* %37, align 8, !tbaa !5
  %38 = add nsw i32 %34, %36
  %39 = getelementptr inbounds [21 x i32], [21 x i32]* %1, i64 0, i64 15
  store i32 %38, i32* %39, align 4, !tbaa !5
  %40 = add nsw i32 %36, %38
  %41 = getelementptr inbounds [21 x i32], [21 x i32]* %1, i64 0, i64 16
  store i32 %40, i32* %41, align 16, !tbaa !5
  %42 = add nsw i32 %38, %40
  %43 = getelementptr inbounds [21 x i32], [21 x i32]* %1, i64 0, i64 17
  store i32 %42, i32* %43, align 4, !tbaa !5
  %44 = add nsw i32 %40, %42
  %45 = getelementptr inbounds [21 x i32], [21 x i32]* %1, i64 0, i64 18
  store i32 %44, i32* %45, align 8, !tbaa !5
  %46 = add nsw i32 %42, %44
  %47 = getelementptr inbounds [21 x i32], [21 x i32]* %1, i64 0, i64 19
  store i32 %46, i32* %47, align 4, !tbaa !5
  %48 = add nsw i32 %44, %46
  %49 = getelementptr inbounds [21 x i32], [21 x i32]* %1, i64 0, i64 20
  store i32 %48, i32* %49, align 16, !tbaa !5
  store i32 20, i32* %2, align 4, !tbaa !5
  %50 = call nonnull align 8 dereferenceable(16) %"class.std::basic_istream"* @_ZNSirsERi(%"class.std::basic_istream"* nonnull align 8 dereferenceable(16) @_ZSt3cin, i32* nonnull align 4 dereferenceable(4) %2)
  %51 = bitcast %"class.std::basic_istream"* %50 to i8**
  %52 = load i8*, i8** %51, align 8, !tbaa !9
  %53 = getelementptr i8, i8* %52, i64 -24
  %54 = bitcast i8* %53 to i64*
  %55 = load i64, i64* %54, align 8
  %56 = bitcast %"class.std::basic_istream"* %50 to i8*
  %57 = add nsw i64 %55, 32
  %58 = getelementptr inbounds i8, i8* %56, i64 %57
  %59 = bitcast i8* %58 to i32*
  %60 = load i32, i32* %59, align 8, !tbaa !11
  %61 = and i32 %60, 5
  %62 = icmp eq i32 %61, 0
  br i1 %62, label %63, label %112

63:                                               ; preds = %0, %95
  %64 = load i32, i32* %2, align 4, !tbaa !5
  %65 = add nsw i32 %64, -1
  %66 = sext i32 %65 to i64
  %67 = getelementptr inbounds [21 x i32], [21 x i32]* %1, i64 0, i64 %66
  %68 = load i32, i32* %67, align 4, !tbaa !5
  %69 = call nonnull align 8 dereferenceable(8) %"class.std::basic_ostream"* @_ZNSolsEi(%"class.std::basic_ostream"* nonnull align 8 dereferenceable(8) @_ZSt4cout, i32 %68)
  %70 = bitcast %"class.std::basic_ostream"* %69 to i8**
  %71 = load i8*, i8** %70, align 8, !tbaa !9
  %72 = getelementptr i8, i8* %71, i64 -24
  %73 = bitcast i8* %72 to i64*
  %74 = load i64, i64* %73, align 8
  %75 = bitcast %"class.std::basic_ostream"* %69 to i8*
  %76 = add nsw i64 %74, 240
  %77 = getelementptr inbounds i8, i8* %75, i64 %76
  %78 = bitcast i8* %77 to %"class.std::ctype"**
  %79 = load %"class.std::ctype"*, %"class.std::ctype"** %78, align 8, !tbaa !19
  %80 = icmp eq %"class.std::ctype"* %79, null
  br i1 %80, label %81, label %82

81:                                               ; preds = %63
  call void @_ZSt16__throw_bad_castv() #8
  unreachable

82:                                               ; preds = %63
  %83 = getelementptr inbounds %"class.std::ctype", %"class.std::ctype"* %79, i64 0, i32 8
  %84 = load i8, i8* %83, align 8, !tbaa !22
  %85 = icmp eq i8 %84, 0
  br i1 %85, label %89, label %86

86:                                               ; preds = %82
  %87 = getelementptr inbounds %"class.std::ctype", %"class.std::ctype"* %79, i64 0, i32 9, i64 10
  %88 = load i8, i8* %87, align 1, !tbaa !24
  br label %95

89:                                               ; preds = %82
  call void @_ZNKSt5ctypeIcE13_M_widen_initEv(%"class.std::ctype"* nonnull align 8 dereferenceable(570) %79)
  %90 = bitcast %"class.std::ctype"* %79 to i8 (%"class.std::ctype"*, i8)***
  %91 = load i8 (%"class.std::ctype"*, i8)**, i8 (%"class.std::ctype"*, i8)*** %90, align 8, !tbaa !9
  %92 = getelementptr inbounds i8 (%"class.std::ctype"*, i8)*, i8 (%"class.std::ctype"*, i8)** %91, i64 6
  %93 = load i8 (%"class.std::ctype"*, i8)*, i8 (%"class.std::ctype"*, i8)** %92, align 8
  %94 = call signext i8 %93(%"class.std::ctype"* nonnull align 8 dereferenceable(570) %79, i8 signext 10)
  br label %95

95:                                               ; preds = %86, %89
  %96 = phi i8 [ %88, %86 ], [ %94, %89 ]
  %97 = call nonnull align 8 dereferenceable(8) %"class.std::basic_ostream"* @_ZNSo3putEc(%"class.std::basic_ostream"* nonnull align 8 dereferenceable(8) %69, i8 signext %96)
  %98 = call nonnull align 8 dereferenceable(8) %"class.std::basic_ostream"* @_ZNSo5flushEv(%"class.std::basic_ostream"* nonnull align 8 dereferenceable(8) %97)
  %99 = call nonnull align 8 dereferenceable(16) %"class.std::basic_istream"* @_ZNSirsERi(%"class.std::basic_istream"* nonnull align 8 dereferenceable(16) @_ZSt3cin, i32* nonnull align 4 dereferenceable(4) %2)
  %100 = bitcast %"class.std::basic_istream"* %99 to i8**
  %101 = load i8*, i8** %100, align 8, !tbaa !9
  %102 = getelementptr i8, i8* %101, i64 -24
  %103 = bitcast i8* %102 to i64*
  %104 = load i64, i64* %103, align 8
  %105 = bitcast %"class.std::basic_istream"* %99 to i8*
  %106 = add nsw i64 %104, 32
  %107 = getelementptr inbounds i8, i8* %105, i64 %106
  %108 = bitcast i8* %107 to i32*
  %109 = load i32, i32* %108, align 8, !tbaa !11
  %110 = and i32 %109, 5
  %111 = icmp eq i32 %110, 0
  br i1 %111, label %63, label %112, !llvm.loop !25

112:                                              ; preds = %95, %0
  call void @llvm.lifetime.end.p0i8(i64 4, i8* nonnull %6) #7
  call void @llvm.lifetime.end.p0i8(i64 4, i8* nonnull %5) #7
  call void @llvm.lifetime.end.p0i8(i64 84, i8* nonnull %4) #7
  ret i32 0
}

; Function Attrs: argmemonly mustprogress nofree nosync nounwind willreturn
declare void @llvm.lifetime.start.p0i8(i64 immarg, i8* nocapture) #4

declare nonnull align 8 dereferenceable(16) %"class.std::basic_istream"* @_ZNSirsERi(%"class.std::basic_istream"* nonnull align 8 dereferenceable(16), i32* nonnull align 4 dereferenceable(4)) local_unnamed_addr #0

declare nonnull align 8 dereferenceable(8) %"class.std::basic_ostream"* @_ZNSolsEi(%"class.std::basic_ostream"* nonnull align 8 dereferenceable(8), i32) local_unnamed_addr #0

; Function Attrs: argmemonly mustprogress nofree nosync nounwind willreturn
declare void @llvm.lifetime.end.p0i8(i64 immarg, i8* nocapture) #4

declare nonnull align 8 dereferenceable(8) %"class.std::basic_ostream"* @_ZNSo3putEc(%"class.std::basic_ostream"* nonnull align 8 dereferenceable(8), i8 signext) local_unnamed_addr #0

declare nonnull align 8 dereferenceable(8) %"class.std::basic_ostream"* @_ZNSo5flushEv(%"class.std::basic_ostream"* nonnull align 8 dereferenceable(8)) local_unnamed_addr #0

; Function Attrs: noreturn
declare void @_ZSt16__throw_bad_castv() local_unnamed_addr #5

declare void @_ZNKSt5ctypeIcE13_M_widen_initEv(%"class.std::ctype"* nonnull align 8 dereferenceable(570)) local_unnamed_addr #0

; Function Attrs: sspstrong uwtable
define internal void @_GLOBAL__sub_I_261.cpp() #6 section ".text.startup" {
  tail call void @_ZNSt8ios_base4InitC1Ev(%"class.std::ios_base::Init"* nonnull align 1 dereferenceable(1) @_ZStL8__ioinit)
  %1 = tail call i32 @__cxa_atexit(void (i8*)* bitcast (void (%"class.std::ios_base::Init"*)* @_ZNSt8ios_base4InitD1Ev to void (i8*)*), i8* getelementptr inbounds (%"class.std::ios_base::Init", %"class.std::ios_base::Init"* @_ZStL8__ioinit, i64 0, i32 0), i8* nonnull @__dso_handle) #7
  ret void
}


!llvm.module.flags = !{!0, !1, !2, !3}
!llvm.ident = !{!4}

!0 = !{i32 1, !"wchar_size", i32 4}
!1 = !{i32 7, !"PIC Level", i32 2}
!2 = !{i32 7, !"PIE Level", i32 2}
!3 = !{i32 7, !"uwtable", i32 1}
!4 = !{!"clang version 13.0.0"}
!5 = !{!6, !6, i64 0}
!6 = !{!"int", !7, i64 0}
!7 = !{!"omnipotent char", !8, i64 0}
!8 = !{!"Simple C++ TBAA"}
!9 = !{!10, !10, i64 0}
!10 = !{!"vtable pointer", !8, i64 0}
!11 = !{!12, !15, i64 32}
!12 = !{!"_ZTSSt8ios_base", !13, i64 8, !13, i64 16, !14, i64 24, !15, i64 28, !15, i64 32, !16, i64 40, !17, i64 48, !7, i64 64, !6, i64 192, !16, i64 200, !18, i64 208}
!13 = !{!"long", !7, i64 0}
!14 = !{!"_ZTSSt13_Ios_Fmtflags", !7, i64 0}
!15 = !{!"_ZTSSt12_Ios_Iostate", !7, i64 0}
!16 = !{!"any pointer", !7, i64 0}
!17 = !{!"_ZTSNSt8ios_base6_WordsE", !16, i64 0, !13, i64 8}
!18 = !{!"_ZTSSt6locale", !16, i64 0}
!19 = !{!20, !16, i64 240}
!20 = !{!"_ZTSSt9basic_iosIcSt11char_traitsIcEE", !16, i64 216, !7, i64 224, !21, i64 225, !16, i64 232, !16, i64 240, !16, i64 248, !16, i64 256}
!21 = !{!"bool", !7, i64 0}
!22 = !{!23, !7, i64 56}
!23 = !{!"_ZTSSt5ctypeIcE", !16, i64 16, !21, i64 24, !16, i64 32, !16, i64 40, !16, i64 48, !7, i64 56, !7, i64 57, !7, i64 313, !7, i64 569}
!24 = !{!7, !7, i64 0}
!25 = distinct !{!25, !26}
!26 = !{!"llvm.loop.mustprogress"}
